target datalayout = "e-m:e-p270:32:32-p271:32:32-p272:64:64-i64:64-i128:128-f80:128-n8:16:32:64-S128"
target triple = "x86_64-pc-linux-gnu"

%struct.Vec_Int_t_ = type { i32, i32, ptr }
%struct.Gia_Man_t_ = type { ptr, ptr, i32, i32, i32, i32, ptr, ptr, i32, i32, i32, ptr, ptr, %struct.Vec_Int_t_, %struct.Vec_Int_t_, i32, i32, i32, %struct.Vec_Int_t_, ptr, ptr, ptr, i32, i32, i32, i32, ptr, ptr, ptr, ptr, ptr, i32, i32, ptr, i32, ptr, ptr, ptr, ptr, ptr, ptr, ptr, ptr, ptr, ptr, ptr, ptr, ptr, ptr, ptr, ptr, ptr, ptr, %struct.Vec_Int_t_, %struct.Vec_Int_t_, ptr, ptr, ptr, ptr, ptr, ptr, ptr, ptr, ptr, ptr, ptr, ptr, ptr, ptr, ptr, ptr, ptr, ptr, ptr, ptr, ptr, i32, float, float, ptr, ptr, i32, ptr, ptr, ptr, ptr, ptr, ptr, ptr, ptr, ptr, ptr, ptr, ptr, ptr, ptr, ptr, i64, i64, ptr, ptr, i32, i32, i32, i32, i32, i32, i32, i32, i32, i32, i32, i32, ptr, ptr, ptr, ptr, ptr, ptr, ptr, ptr, i32, i32, i32, ptr, i32, i32, ptr, ptr, ptr, ptr, ptr, ptr, i32, i32, ptr, %struct.Vec_Int_t_, %struct.Vec_Int_t_, %struct.Vec_Int_t_, ptr, ptr, ptr, i32, i32, i32, i32, ptr, ptr, ptr, ptr, ptr }
%struct.Abc_Frame_t_ = type { ptr, ptr, ptr, ptr, ptr, ptr, ptr, ptr, ptr, ptr, i32, i32, i32, i32, i32, ptr, float, float, i32, i32, ptr, ptr, ptr, double, double, ptr, ptr, ptr, ptr, ptr, ptr, ptr, ptr, ptr, ptr, ptr, ptr, float, ptr, i32, ptr, ptr, ptr, ptr, ptr, i32, i32, i32, i32, i32, i32, ptr, ptr, ptr, ptr, ptr, ptr, i32, i32, ptr, ptr, ptr, ptr, ptr, ptr, ptr, ptr, ptr, ptr, ptr, ptr, ptr, ptr, ptr, ptr, ptr, ptr, ptr, ptr, ptr, ptr, ptr, ptr, ptr, ptr, ptr, ptr, ptr, ptr }

@.str.10 = private unnamed_addr constant [44 x i8] c"GIA derived from MiniAig is not available.\0A\00", align 1
@.str.13 = private unnamed_addr constant [44 x i8] c"Mapping of MiniAig nodes is not available.\0A\00", align 1
@.str.14 = private unnamed_addr constant [57 x i8] c"Internal GIA with equivalence classes is not available.\0A\00", align 1
@.str.15 = private unnamed_addr constant [56 x i8] c"Equivalence classes of internal GIA are not available.\0A\00", align 1
@.str.16 = private unnamed_addr constant [77 x i8] c"Internal GIA with equivalence classes is not directly derived from MiniAig.\0A\00", align 1

; Function Attrs: inlinehint nounwind uwtable
define internal void @Vec_IntFree(ptr noundef %0) #2 {
  %2 = alloca ptr, align 8
  store ptr %0, ptr %2, align 8, !tbaa !8
  %3 = load ptr, ptr %2, align 8, !tbaa !8
  %4 = getelementptr inbounds nuw %struct.Vec_Int_t_, ptr %3, i32 0, i32 2
  %5 = load ptr, ptr %4, align 8, !tbaa !17
  %6 = icmp ne ptr %5, null
  br i1 %6, label %7, label %13

7:                                                ; preds = %1
  %8 = load ptr, ptr %2, align 8, !tbaa !8
  %9 = getelementptr inbounds nuw %struct.Vec_Int_t_, ptr %8, i32 0, i32 2
  %10 = load ptr, ptr %9, align 8, !tbaa !17
  call void @free(ptr noundef %10) #13
  %11 = load ptr, ptr %2, align 8, !tbaa !8
  %12 = getelementptr inbounds nuw %struct.Vec_Int_t_, ptr %11, i32 0, i32 2
  store ptr null, ptr %12, align 8, !tbaa !17
  br label %14

13:                                               ; preds = %1
  br label %14

14:                                               ; preds = %13, %7
  %15 = load ptr, ptr %2, align 8, !tbaa !8
  %16 = icmp ne ptr %15, null
  br i1 %16, label %17, label %19

17:                                               ; preds = %14
  %18 = load ptr, ptr %2, align 8, !tbaa !8
  call void @free(ptr noundef %18) #13
  store ptr null, ptr %2, align 8, !tbaa !8
  br label %20

19:                                               ; preds = %14
  br label %20

20:                                               ; preds = %19, %17
  ret void
}

; Function Attrs: inlinehint nounwind uwtable
define internal ptr @Vec_IntReleaseArray(ptr noundef %0) #2 {
  %2 = alloca ptr, align 8
  %3 = alloca ptr, align 8
  store ptr %0, ptr %2, align 8, !tbaa !8
  call void @llvm.lifetime.start.p0(i64 8, ptr %3) #13
  %4 = load ptr, ptr %2, align 8, !tbaa !8
  %5 = getelementptr inbounds nuw %struct.Vec_Int_t_, ptr %4, i32 0, i32 2
  %6 = load ptr, ptr %5, align 8, !tbaa !17
  store ptr %6, ptr %3, align 8, !tbaa !83
  %7 = load ptr, ptr %2, align 8, !tbaa !8
  %8 = getelementptr inbounds nuw %struct.Vec_Int_t_, ptr %7, i32 0, i32 0
  store i32 0, ptr %8, align 8, !tbaa !44
  %9 = load ptr, ptr %2, align 8, !tbaa !8
  %10 = getelementptr inbounds nuw %struct.Vec_Int_t_, ptr %9, i32 0, i32 1
  store i32 0, ptr %10, align 4, !tbaa !43
  %11 = load ptr, ptr %2, align 8, !tbaa !8
  %12 = getelementptr inbounds nuw %struct.Vec_Int_t_, ptr %11, i32 0, i32 2
  store ptr null, ptr %12, align 8, !tbaa !17
  %13 = load ptr, ptr %3, align 8, !tbaa !83
  call void @llvm.lifetime.end.p0(i64 8, ptr %3) #13
  ret ptr %13
}

; Function Attrs: inlinehint nounwind uwtable
define internal i32 @Gia_ManObjNum(ptr noundef %0) #2 {
  %2 = alloca ptr, align 8
  store ptr %0, ptr %2, align 8, !tbaa !3
  %3 = load ptr, ptr %2, align 8, !tbaa !3
  %4 = getelementptr inbounds nuw %struct.Gia_Man_t_, ptr %3, i32 0, i32 4
  %5 = load i32, ptr %4, align 8, !tbaa !53
  ret i32 %5
}

; Function Attrs: nounwind uwtable
define ptr @Abc_FrameReadMiniAigEquivClasses(ptr noundef %0) #0 {
  %2 = alloca ptr, align 8
  %3 = alloca ptr, align 8
  %4 = alloca ptr, align 8
  %5 = alloca ptr, align 8
  %6 = alloca i32, align 4
  store ptr %0, ptr %3, align 8, !tbaa !58
  call void @llvm.lifetime.start.p0(i64 8, ptr %4) #13
  call void @llvm.lifetime.start.p0(i64 8, ptr %5) #13
  %7 = load ptr, ptr %3, align 8, !tbaa !58
  %8 = getelementptr inbounds nuw %struct.Abc_Frame_t_, ptr %7, i32 0, i32 80
  %9 = load ptr, ptr %8, align 8, !tbaa !61
  %10 = icmp eq ptr %9, null
  br i1 %10, label %11, label %13

11:                                               ; preds = %1
  %12 = call i32 (ptr, ...) @printf(ptr noundef @.str.10)
  br label %13

13:                                               ; preds = %11, %1
  %14 = load ptr, ptr %3, align 8, !tbaa !58
  %15 = getelementptr inbounds nuw %struct.Abc_Frame_t_, ptr %14, i32 0, i32 82
  %16 = load ptr, ptr %15, align 8, !tbaa !135
  %17 = icmp eq ptr %16, null
  br i1 %17, label %18, label %20

18:                                               ; preds = %13
  %19 = call i32 (ptr, ...) @printf(ptr noundef @.str.13)
  br label %20

20:                                               ; preds = %18, %13
  %21 = load ptr, ptr %3, align 8, !tbaa !58
  %22 = getelementptr inbounds nuw %struct.Abc_Frame_t_, ptr %21, i32 0, i32 41
  %23 = load ptr, ptr %22, align 8, !tbaa !147
  %24 = icmp eq ptr %23, null
  br i1 %24, label %25, label %27

25:                                               ; preds = %20
  %26 = call i32 (ptr, ...) @printf(ptr noundef @.str.14)
  br label %27

27:                                               ; preds = %25, %20
  %28 = load ptr, ptr %3, align 8, !tbaa !58
  %29 = getelementptr inbounds nuw %struct.Abc_Frame_t_, ptr %28, i32 0, i32 41
  %30 = load ptr, ptr %29, align 8, !tbaa !147
  %31 = getelementptr inbounds nuw %struct.Gia_Man_t_, ptr %30, i32 0, i32 27
  %32 = load ptr, ptr %31, align 8, !tbaa !148
  %33 = icmp eq ptr %32, null
  br i1 %33, label %34, label %36

34:                                               ; preds = %27
  %35 = call i32 (ptr, ...) @printf(ptr noundef @.str.15)
  store ptr null, ptr %2, align 8
  store i32 1, ptr %6, align 4
  br label %61

36:                                               ; preds = %27
  br label %37

37:                                               ; preds = %36
  %38 = load ptr, ptr %3, align 8, !tbaa !58
  %39 = getelementptr inbounds nuw %struct.Abc_Frame_t_, ptr %38, i32 0, i32 41
  %40 = load ptr, ptr %39, align 8, !tbaa !147
  %41 = call i32 @Gia_ManObjNum(ptr noundef %40)
  %42 = load ptr, ptr %3, align 8, !tbaa !58
  %43 = getelementptr inbounds nuw %struct.Abc_Frame_t_, ptr %42, i32 0, i32 80
  %44 = load ptr, ptr %43, align 8, !tbaa !61
  %45 = call i32 @Gia_ManObjNum(ptr noundef %44)
  %46 = icmp ne i32 %41, %45
  br i1 %46, label %47, label %49

47:                                               ; preds = %37
  %48 = call i32 (ptr, ...) @printf(ptr noundef @.str.16)
  br label %49

49:                                               ; preds = %47, %37
  %50 = load ptr, ptr %3, align 8, !tbaa !58
  %51 = getelementptr inbounds nuw %struct.Abc_Frame_t_, ptr %50, i32 0, i32 41
  %52 = load ptr, ptr %51, align 8, !tbaa !147
  %53 = load ptr, ptr %3, align 8, !tbaa !58
  %54 = getelementptr inbounds nuw %struct.Abc_Frame_t_, ptr %53, i32 0, i32 82
  %55 = load ptr, ptr %54, align 8, !tbaa !135
  %56 = call ptr @Gia_ManMapEquivAfterScorr(ptr noundef %52, ptr noundef %55)
  store ptr %56, ptr %4, align 8, !tbaa !8
  %57 = load ptr, ptr %4, align 8, !tbaa !8
  %58 = call ptr @Vec_IntReleaseArray(ptr noundef %57)
  store ptr %58, ptr %5, align 8, !tbaa !83
  %59 = load ptr, ptr %4, align 8, !tbaa !8
  call void @Vec_IntFree(ptr noundef %59)
  %60 = load ptr, ptr %5, align 8, !tbaa !83
  store ptr %60, ptr %2, align 8
  store i32 1, ptr %6, align 4
  br label %61

61:                                               ; preds = %49, %34
  call void @llvm.lifetime.end.p0(i64 8, ptr %5) #13
  call void @llvm.lifetime.end.p0(i64 8, ptr %4) #13
  %62 = load ptr, ptr %2, align 8
  ret ptr %62
}