; Function Attrs: nounwind uwtable
define ptr @Abc_FrameReadMiniAigEquivClasses(ptr noundef readonly captures(none) %0) local_unnamed_addr #2 {
  %2 = getelementptr inbounds nuw i8, ptr %0, i64 576
  %3 = load ptr, ptr %2, align 8, !tbaa !52
  %4 = icmp eq ptr %3, null
  br i1 %4, label %5, label %6

5:                                                ; preds = %1
  %puts = tail call i32 @puts(ptr nonnull dereferenceable(1) @str.14)
  br label %6

6:                                                ; preds = %5, %1
  %7 = getelementptr inbounds nuw i8, ptr %0, i64 592
  %8 = load ptr, ptr %7, align 8, !tbaa !118
  %9 = icmp eq ptr %8, null
  br i1 %9, label %10, label %11

10:                                               ; preds = %6
  %puts12 = tail call i32 @puts(ptr nonnull dereferenceable(1) @str.22)
  br label %11

11:                                               ; preds = %10, %6
  %12 = getelementptr inbounds nuw i8, ptr %0, i64 296
  %13 = load ptr, ptr %12, align 8, !tbaa !129
  %14 = icmp eq ptr %13, null
  br i1 %14, label %15, label %16

15:                                               ; preds = %11
  %puts13 = tail call i32 @puts(ptr nonnull dereferenceable(1) @str.16)
  %.pre = load ptr, ptr %12, align 8, !tbaa !129
  br label %16

16:                                               ; preds = %15, %11
  %17 = phi ptr [ %.pre, %15 ], [ %13, %11 ]
  %18 = getelementptr inbounds nuw i8, ptr %17, i64 192
  %19 = load ptr, ptr %18, align 8, !tbaa !112
  %20 = icmp eq ptr %19, null
  br i1 %20, label %21, label %22

21:                                               ; preds = %16
  %puts15 = tail call i32 @puts(ptr nonnull dereferenceable(1) @str.18)
  br label %32

22:                                               ; preds = %16
  %23 = getelementptr i8, ptr %17, i64 24
  %.val16 = load i32, ptr %23, align 8, !tbaa !48
  %24 = load ptr, ptr %2, align 8, !tbaa !52
  %25 = getelementptr i8, ptr %24, i64 24
  %.val = load i32, ptr %25, align 8, !tbaa !48
  %.not = icmp eq i32 %.val16, %.val
  br i1 %.not, label %Vec_IntFree.exit, label %26

26:                                               ; preds = %22
  %puts14 = tail call i32 @puts(ptr nonnull dereferenceable(1) @str.17)
  %.pre17 = load ptr, ptr %12, align 8, !tbaa !129
  br label %Vec_IntFree.exit

Vec_IntFree.exit:                                 ; preds = %22, %26
  %27 = phi ptr [ %.pre17, %26 ], [ %17, %22 ]
  %28 = load ptr, ptr %7, align 8, !tbaa !118
  %29 = tail call ptr @Gia_ManMapEquivAfterScorr(ptr noundef %27, ptr noundef %28)
  %30 = getelementptr inbounds nuw i8, ptr %29, i64 8
  %31 = load ptr, ptr %30, align 8, !tbaa !11
  tail call void @free(ptr noundef nonnull %29) #25
  br label %32

32:                                               ; preds = %Vec_IntFree.exit, %21
  %.0 = phi ptr [ null, %21 ], [ %31, %Vec_IntFree.exit ]
  ret ptr %.0
}